; Function Attrs: nounwind uwtable
define range(i32 -1, 2) i32 @H5P_class_isa(ptr noundef readonly captures(none) %0, ptr noundef readonly captures(none) %1) local_unnamed_addr #0 {
  br label %tailrecurse

tailrecurse:                                      ; preds = %21, %2
  %.tr = phi ptr [ %0, %2 ], [ %22, %21 ]
  %3 = load i8, ptr @H5P_init_g, align 1, !tbaa !3, !range !7, !noundef !8
  %4 = trunc nuw i8 %3 to i1
  %5 = load i8, ptr @H5_libterm_g, align 1, !range !7
  %6 = trunc nuw i8 %5 to i1
  %7 = select i1 %4, i1 true, i1 %6
  br i1 %7, label %15, label %8, !prof !9

8:                                                ; preds = %tailrecurse
  store i8 1, ptr @H5P_init_g, align 1, !tbaa !3
  %9 = tail call i32 @H5P__init_package()
  %10 = icmp slt i32 %9, 0
  br i1 %10, label %11, label %._crit_edge

._crit_edge:                                      ; preds = %8
  %.pre = load i8, ptr @H5P_init_g, align 1, !tbaa !3, !range !7
  %.pre8 = load i8, ptr @H5_libterm_g, align 1, !range !7
  %.pre9 = trunc nuw i8 %.pre to i1
  %.pre10 = trunc nuw i8 %.pre8 to i1
  br label %15

11:                                               ; preds = %8
  store i8 0, ptr @H5P_init_g, align 1, !tbaa !3
  %12 = load i64, ptr @H5E_FUNC_g, align 8, !tbaa !10
  %13 = load i64, ptr @H5E_CANTINIT_g, align 8, !tbaa !10
  %14 = tail call i32 (ptr, ptr, i32, i64, i64, ptr, ...) @H5E_printf_stack(ptr noundef nonnull @.str.7, ptr noundef nonnull @__func__.H5P_class_isa, i32 noundef 4081, i64 noundef %12, i64 noundef %13, ptr noundef nonnull @.str.8) #14
  br label %.loopexit

15:                                               ; preds = %._crit_edge, %tailrecurse
  %.pre-phi11 = phi i1 [ %.pre10, %._crit_edge ], [ %6, %tailrecurse ]
  %.pre-phi = phi i1 [ %.pre9, %._crit_edge ], [ %4, %tailrecurse ]
  %16 = xor i1 %.pre-phi11, true
  %17 = select i1 %.pre-phi, i1 true, i1 %16
  br i1 %17, label %18, label %.loopexit, !prof !9

18:                                               ; preds = %15
  %19 = tail call i32 @H5P__cmp_class(ptr noundef %.tr, ptr noundef %1)
  %20 = icmp eq i32 %19, 0
  br i1 %20, label %.loopexit, label %21

21:                                               ; preds = %18
  %22 = load ptr, ptr %.tr, align 8, !tbaa !38
  %.not = icmp eq ptr %22, null
  br i1 %.not, label %.loopexit, label %tailrecurse

.loopexit:                                        ; preds = %21, %18, %15, %11
  %.0 = phi i32 [ -1, %11 ], [ 0, %21 ], [ 1, %18 ], [ -1, %15 ]
  ret i32 %.0
}